; Function Attrs: mustprogress uwtable
define void @_ZN8proxygen16HTTPCodecPrinter7onAbortEmNS_9ErrorCodeE(ptr nocapture noundef nonnull readonly align 8 dereferenceable(72) %this, i64 noundef %stream, i8 noundef zeroext %code) unnamed_addr #3 align 2 {
entry:
  %call = tail call noundef nonnull align 8 dereferenceable(8) ptr @_ZStlsISt11char_traitsIcEERSt13basic_ostreamIcT_ES5_PKc(ptr noundef nonnull align 8 dereferenceable(8) @_ZSt4cout, ptr noundef nonnull @.str.14)
  %call2 = tail call noundef nonnull align 8 dereferenceable(8) ptr @_ZNSolsEm(ptr noundef nonnull align 8 dereferenceable(8) %call, i64 noundef %stream)
  %call3 = tail call noundef nonnull align 8 dereferenceable(8) ptr @_ZStlsISt11char_traitsIcEERSt13basic_ostreamIcT_ES5_PKc(ptr noundef nonnull align 8 dereferenceable(8) %call2, ptr noundef nonnull @.str.15)
  %call4 = tail call noundef ptr @_ZN8proxygen18getErrorCodeStringENS_9ErrorCodeE(i8 noundef zeroext %code)
  %call5 = tail call noundef nonnull align 8 dereferenceable(8) ptr @_ZStlsISt11char_traitsIcEERSt13basic_ostreamIcT_ES5_PKc(ptr noundef nonnull align 8 dereferenceable(8) %call3, ptr noundef %call4)
  %call6 = tail call noundef nonnull align 8 dereferenceable(8) ptr @_ZNSolsEPFRSoS_E(ptr noundef nonnull align 8 dereferenceable(8) %call5, ptr noundef nonnull @_ZSt4endlIcSt11char_traitsIcEERSt13basic_ostreamIT_T0_ES6_)
  %callback_ = getelementptr inbounds i8, ptr %this, i64 32
  %0 = load ptr, ptr %callback_, align 8
  %vtable = load ptr, ptr %0, align 8
  %vfn = getelementptr inbounds i8, ptr %vtable, i64 80
  %1 = load ptr, ptr %vfn, align 8
  tail call void %1(ptr noundef nonnull align 8 dereferenceable(8) %0, i64 noundef %stream, i8 noundef zeroext %code)
  ret void
}